; Function Attrs: inlinehint mustprogress optsize uwtable
define internal noundef nonnull ptr @"_ZZN8nanobind6detail11func_createILb0ELb1EZL26nanobind_init_test_stl_extRNS_7module_EE4$_18vJSt5tupleIJR7MovableEEEJLm0EEJNS_5scopeENS_4nameEEEEP7_objectOT1_PFT2_DpT3_ESt16integer_sequenceImJXspT4_EEEDpRKT5_ENUlPvPSC_PhNS_9rv_policyEPNS0_12cleanup_listEE_8__invokeESQ_SR_SS_ST_SV_"(ptr readnone captures(none) %0, ptr noundef readonly captures(none) %1, ptr noundef readonly captures(none) %2, i32 %3, ptr noundef %4) #11 align 2 personality ptr @__gxx_personality_v0 {
  %6 = alloca %"struct.nanobind::detail::tuple.360", align 8
  call void @llvm.lifetime.start.p0(i64 8, ptr nonnull %6) #28
  store i64 0, ptr %6, align 8
  %7 = load ptr, ptr %1, align 8, !tbaa !131
  %8 = load i8, ptr %2, align 1, !tbaa !44
  %9 = call noundef zeroext i1 @_ZN8nanobind6detail11type_casterISt5tupleIJR7MovableEEiE16from_python_implIJLm0EEEEbNS_6handleEhPNS0_12cleanup_listESt16integer_sequenceImJXspT_EEE(ptr noundef nonnull align 8 dereferenceable(8) %6, ptr %7, i8 noundef zeroext %8, ptr noundef %4) #27
  br i1 %9, label %10, label %"_ZZN8nanobind6detail11func_createILb0ELb1EZL26nanobind_init_test_stl_extRNS_7module_EE4$_18vJSt5tupleIJR7MovableEEEJLm0EEJNS_5scopeENS_4nameEEEEP7_objectOT1_PFT2_DpT3_ESt16integer_sequenceImJXspT4_EEEDpRKT5_ENKUlPvPSC_PhNS_9rv_policyEPNS0_12cleanup_listEE_clESQ_SR_SS_ST_SV_.exit"

10:                                               ; preds = %5
  %11 = load ptr, ptr %6, align 8, !tbaa !132, !noalias !226
  call void @_ZN8nanobind6detail27raise_next_overload_if_nullEPv(ptr noundef %11) #30, !noalias !226
  %12 = load ptr, ptr %6, align 8, !tbaa !132, !noalias !226
  %.val.val = load i32, ptr %12, align 4, !tbaa !129
  %.not.i = icmp eq i32 %.val.val, 5
  br i1 %.not.i, label %"_ZZL26nanobind_init_test_stl_extRN8nanobind7module_EENK4$_18clESt5tupleIJR7MovableEE.exit", label %13

13:                                               ; preds = %10
  call void @_Z4failv() #30
  unreachable

"_ZZL26nanobind_init_test_stl_extRN8nanobind7module_EENK4$_18clESt5tupleIJR7MovableEE.exit": ; preds = %10
  %14 = load i64, ptr @_Py_NoneStruct, align 8, !tbaa !69
  %15 = add nsw i64 %14, 1
  store i64 %15, ptr @_Py_NoneStruct, align 8, !tbaa !69
  br label %"_ZZN8nanobind6detail11func_createILb0ELb1EZL26nanobind_init_test_stl_extRNS_7module_EE4$_18vJSt5tupleIJR7MovableEEEJLm0EEJNS_5scopeENS_4nameEEEEP7_objectOT1_PFT2_DpT3_ESt16integer_sequenceImJXspT4_EEEDpRKT5_ENKUlPvPSC_PhNS_9rv_policyEPNS0_12cleanup_listEE_clESQ_SR_SS_ST_SV_.exit"

"_ZZN8nanobind6detail11func_createILb0ELb1EZL26nanobind_init_test_stl_extRNS_7module_EE4$_18vJSt5tupleIJR7MovableEEEJLm0EEJNS_5scopeENS_4nameEEEEP7_objectOT1_PFT2_DpT3_ESt16integer_sequenceImJXspT4_EEEDpRKT5_ENKUlPvPSC_PhNS_9rv_policyEPNS0_12cleanup_listEE_clESQ_SR_SS_ST_SV_.exit": ; preds = %5, %"_ZZL26nanobind_init_test_stl_extRN8nanobind7module_EENK4$_18clESt5tupleIJR7MovableEE.exit"
  %.0.i = phi ptr [ @_Py_NoneStruct, %"_ZZL26nanobind_init_test_stl_extRN8nanobind7module_EENK4$_18clESt5tupleIJR7MovableEE.exit" ], [ inttoptr (i64 1 to ptr), %5 ]
  call void @llvm.lifetime.end.p0(i64 8, ptr nonnull %6) #28
  ret ptr %.0.i
}